target datalayout = "e-m:e-p270:32:32-p271:32:32-p272:64:64-i64:64-i128:128-f80:128-n8:16:32:64-S128"
target triple = "x86_64-pc-linux-gnu"

%struct.string_list = type { ptr, i64, i64, i8, ptr }
%struct.string_list_item = type { ptr, ptr }

@extra_http_headers = internal global { ptr, i64, i64, i8, [7 x i8], ptr } { ptr null, i64 0, i64 0, i8 1, [7 x i8] zeroinitializer, ptr null }, align 8

; Function Attrs: nounwind uwtable
define dso_local ptr @http_copy_default_headers() #0 {
  %1 = alloca ptr, align 8
  %2 = alloca ptr, align 8
  call void @llvm.lifetime.start.p0(i64 8, ptr %1) #11
  store ptr null, ptr %1, align 8, !tbaa !25
  call void @llvm.lifetime.start.p0(i64 8, ptr %2) #11
  %3 = load ptr, ptr @extra_http_headers, align 8, !tbaa !69
  store ptr %3, ptr %2, align 8, !tbaa !70
  br label %4

4:                                                ; preds = %21, %0
  %5 = load ptr, ptr %2, align 8, !tbaa !70
  %6 = icmp ne ptr %5, null
  br i1 %6, label %7, label %13

7:                                                ; preds = %4
  %8 = load ptr, ptr %2, align 8, !tbaa !70
  %9 = load ptr, ptr @extra_http_headers, align 8, !tbaa !69
  %10 = load i64, ptr getelementptr inbounds nuw (%struct.string_list, ptr @extra_http_headers, i32 0, i32 1), align 8, !tbaa !71
  %11 = getelementptr inbounds nuw %struct.string_list_item, ptr %9, i64 %10
  %12 = icmp ult ptr %8, %11
  br label %13

13:                                               ; preds = %7, %4
  %14 = phi i1 [ false, %4 ], [ %12, %7 ]
  br i1 %14, label %15, label %24

15:                                               ; preds = %13
  %16 = load ptr, ptr %1, align 8, !tbaa !25
  %17 = load ptr, ptr %2, align 8, !tbaa !70
  %18 = getelementptr inbounds nuw %struct.string_list_item, ptr %17, i32 0, i32 0
  %19 = load ptr, ptr %18, align 8, !tbaa !72
  %20 = call ptr @curl_slist_append(ptr noundef %16, ptr noundef %19)
  store ptr %20, ptr %1, align 8, !tbaa !25
  br label %21

21:                                               ; preds = %15
  %22 = load ptr, ptr %2, align 8, !tbaa !70
  %23 = getelementptr inbounds nuw %struct.string_list_item, ptr %22, i32 1
  store ptr %23, ptr %2, align 8, !tbaa !70
  br label %4, !llvm.loop !74

24:                                               ; preds = %13
  %25 = load ptr, ptr %1, align 8, !tbaa !25
  call void @llvm.lifetime.end.p0(i64 8, ptr %2) #11
  call void @llvm.lifetime.end.p0(i64 8, ptr %1) #11
  ret ptr %25
}