; Function Attrs: nounwind uwtable
define dso_local ptr @http_copy_default_headers() local_unnamed_addr #3 {
  %1 = load ptr, ptr @extra_http_headers, align 8, !tbaa !56
  %.not7 = icmp eq ptr %1, null
  br i1 %.not7, label %.critedge, label %.lr.ph.preheader

.lr.ph.preheader:                                 ; preds = %0
  %2 = load ptr, ptr @extra_http_headers, align 8, !tbaa !56
  %3 = load i64, ptr getelementptr inbounds nuw (i8, ptr @extra_http_headers, i64 8), align 8, !tbaa !59
  %4 = getelementptr inbounds nuw %struct.string_list_item, ptr %2, i64 %3
  %5 = icmp ult ptr %1, %4
  br i1 %5, label %.lr.ph, label %.critedge

.lr.ph:                                           ; preds = %.lr.ph.preheader, %.lr.ph
  %.06813 = phi ptr [ %7, %.lr.ph ], [ null, %.lr.ph.preheader ]
  %.0912 = phi ptr [ %8, %.lr.ph ], [ %1, %.lr.ph.preheader ]
  %6 = load ptr, ptr %.0912, align 8, !tbaa !57
  %7 = tail call ptr @curl_slist_append(ptr noundef %.06813, ptr noundef %6) #22
  %8 = getelementptr inbounds nuw i8, ptr %.0912, i64 16
  %9 = load ptr, ptr @extra_http_headers, align 8, !tbaa !56
  %10 = load i64, ptr getelementptr inbounds nuw (i8, ptr @extra_http_headers, i64 8), align 8, !tbaa !59
  %11 = getelementptr inbounds nuw %struct.string_list_item, ptr %9, i64 %10
  %12 = icmp ult ptr %8, %11
  br i1 %12, label %.lr.ph, label %.critedge

.critedge:                                        ; preds = %.lr.ph, %.lr.ph.preheader, %0
  %.06.lcssa = phi ptr [ null, %0 ], [ null, %.lr.ph.preheader ], [ %7, %.lr.ph ]
  ret ptr %.06.lcssa
}